#include <math.h>
#include <stdio.h>
#include <stdlib.h>
#include <string.h>

int prime(int num)
{
	int i;
	if(num%2==0)
		return 0;
	else
	{
		for(i=3;i<num;i+=2)
	{
		if(num%i==0)
			break;
	}
	if(i==num)
		return 1;
	else
		return 0;
	}
}
int main()
{
	int num;
	int i;
	scanf("%d",&num);
	for(i=3;i<=num/2;i+=2)
	{
		if(prime(i)&&prime(num-i))
			printf("%d %d\n",i,num-i);
	}
	return 0;
}
