; ModuleID = 'source-C-CXX/42/202.c'
source_filename = "source-C-CXX/42/202.c"
target datalayout = "e-m:e-p270:32:32-p271:32:32-p272:64:64-i64:64-f80:128-n8:16:32:64-S128"
target triple = "x86_64-pc-linux-gnu"

@.str = private unnamed_addr constant [3 x i8] c"%d\00", align 1
@.str.1 = private unnamed_addr constant [7 x i8] c"%d %d\0A\00", align 1

; Function Attrs: nofree norecurse nosync nounwind readnone sspstrong uwtable
define dso_local i32 @prime(i32 %0) local_unnamed_addr #0 {
  %2 = and i32 %0, 1
  %3 = icmp eq i32 %2, 0
  br i1 %3, label %17, label %4

4:                                                ; preds = %1
  %5 = icmp sgt i32 %0, 3
  br i1 %5, label %6, label %13

6:                                                ; preds = %4, %10
  %7 = phi i32 [ %11, %10 ], [ 3, %4 ]
  %8 = srem i32 %0, %7
  %9 = icmp eq i32 %8, 0
  br i1 %9, label %13, label %10

10:                                               ; preds = %6
  %11 = add nuw nsw i32 %7, 2
  %12 = icmp slt i32 %11, %0
  br i1 %12, label %6, label %13, !llvm.loop !5

13:                                               ; preds = %10, %6, %4
  %14 = phi i32 [ 3, %4 ], [ %7, %6 ], [ %11, %10 ]
  %15 = icmp eq i32 %14, %0
  %16 = zext i1 %15 to i32
  br label %17

17:                                               ; preds = %13, %1
  %18 = phi i32 [ 0, %1 ], [ %16, %13 ]
  ret i32 %18
}

; Function Attrs: argmemonly mustprogress nofree nosync nounwind willreturn
declare void @llvm.lifetime.start.p0i8(i64 immarg, i8* nocapture) #1

; Function Attrs: argmemonly mustprogress nofree nosync nounwind willreturn
declare void @llvm.lifetime.end.p0i8(i64 immarg, i8* nocapture) #1

; Function Attrs: nofree nounwind sspstrong uwtable
define dso_local i32 @main() local_unnamed_addr #2 {
  %1 = alloca i32, align 4
  %2 = bitcast i32* %1 to i8*
  call void @llvm.lifetime.start.p0i8(i64 4, i8* nonnull %2) #4
  %3 = call i32 (i8*, ...) @__isoc99_scanf(i8* getelementptr inbounds ([3 x i8], [3 x i8]* @.str, i64 0, i64 0), i32* nonnull %1)
  %4 = load i32, i32* %1, align 4, !tbaa !7
  %5 = icmp slt i32 %4, 6
  br i1 %5, label %44, label %6

6:                                                ; preds = %0, %39
  %7 = phi i32 [ %40, %39 ], [ %4, %0 ]
  %8 = phi i32 [ %41, %39 ], [ 3, %0 ]
  %9 = icmp ugt i32 %8, 3
  br i1 %9, label %10, label %17

10:                                               ; preds = %6, %14
  %11 = phi i32 [ %15, %14 ], [ 3, %6 ]
  %12 = urem i32 %8, %11
  %13 = icmp eq i32 %12, 0
  br i1 %13, label %17, label %14

14:                                               ; preds = %10
  %15 = add nuw nsw i32 %11, 2
  %16 = icmp ult i32 %15, %8
  br i1 %16, label %10, label %17, !llvm.loop !5

17:                                               ; preds = %10, %14, %6
  %18 = phi i32 [ 3, %6 ], [ %15, %14 ], [ %11, %10 ]
  %19 = icmp eq i32 %18, %8
  br i1 %19, label %20, label %39

20:                                               ; preds = %17
  %21 = sub nsw i32 %7, %8
  %22 = and i32 %21, 1
  %23 = icmp eq i32 %22, 0
  br i1 %23, label %39, label %24

24:                                               ; preds = %20
  %25 = icmp sgt i32 %21, 3
  br i1 %25, label %26, label %33

26:                                               ; preds = %24, %30
  %27 = phi i32 [ %31, %30 ], [ 3, %24 ]
  %28 = srem i32 %21, %27
  %29 = icmp eq i32 %28, 0
  br i1 %29, label %33, label %30

30:                                               ; preds = %26
  %31 = add nuw nsw i32 %27, 2
  %32 = icmp slt i32 %31, %21
  br i1 %32, label %26, label %33, !llvm.loop !5

33:                                               ; preds = %26, %30, %24
  %34 = phi i32 [ 3, %24 ], [ %31, %30 ], [ %27, %26 ]
  %35 = icmp eq i32 %34, %21
  br i1 %35, label %36, label %39

36:                                               ; preds = %33
  %37 = call i32 (i8*, ...) @printf(i8* nonnull dereferenceable(1) getelementptr inbounds ([7 x i8], [7 x i8]* @.str.1, i64 0, i64 0), i32 %8, i32 %21)
  %38 = load i32, i32* %1, align 4, !tbaa !7
  br label %39

39:                                               ; preds = %20, %17, %33, %36
  %40 = phi i32 [ %7, %20 ], [ %7, %17 ], [ %7, %33 ], [ %38, %36 ]
  %41 = add nuw nsw i32 %8, 2
  %42 = sdiv i32 %40, 2
  %43 = icmp sgt i32 %41, %42
  br i1 %43, label %44, label %6, !llvm.loop !11

44:                                               ; preds = %39, %0
  call void @llvm.lifetime.end.p0i8(i64 4, i8* nonnull %2) #4
  ret i32 0
}

; Function Attrs: nofree nounwind
declare noundef i32 @__isoc99_scanf(i8* nocapture noundef readonly, ...) local_unnamed_addr #3

; Function Attrs: nofree nounwind
declare noundef i32 @printf(i8* nocapture noundef readonly, ...) local_unnamed_addr #3


!llvm.module.flags = !{!0, !1, !2, !3}
!llvm.ident = !{!4}

!0 = !{i32 1, !"wchar_size", i32 4}
!1 = !{i32 7, !"PIC Level", i32 2}
!2 = !{i32 7, !"PIE Level", i32 2}
!3 = !{i32 7, !"uwtable", i32 1}
!4 = !{!"clang version 13.0.0"}
!5 = distinct !{!5, !6}
!6 = !{!"llvm.loop.mustprogress"}
!7 = !{!8, !8, i64 0}
!8 = !{!"int", !9, i64 0}
!9 = !{!"omnipotent char", !10, i64 0}
!10 = !{!"Simple C/C++ TBAA"}
!11 = distinct !{!11, !6}
